; Function Attrs: mustprogress nounwind uwtable
define void @_ZN4cvc58internal6parser11SymbolTableD2Ev(ptr nocapture noundef nonnull align 8 dereferenceable(8) %this) unnamed_addr #5 align 2 personality ptr @__gxx_personality_v0 {
entry:
  %0 = load ptr, ptr %this, align 8
  %cmp.not.i = icmp eq ptr %0, null
  br i1 %cmp.not.i, label %_ZNSt10unique_ptrIN4cvc58internal6parser11SymbolTable14ImplementationESt14default_deleteIS4_EED2Ev.exit, label %_ZNKSt14default_deleteIN4cvc58internal6parser11SymbolTable14ImplementationEEclEPS4_.exit.i

_ZNKSt14default_deleteIN4cvc58internal6parser11SymbolTable14ImplementationEEclEPS4_.exit.i: ; preds = %entry
  tail call void @_ZN4cvc58internal6parser11SymbolTable14ImplementationD2Ev(ptr noundef nonnull align 8 dereferenceable(416) %0) #19
  tail call void @_ZdlPv(ptr noundef nonnull %0) #21
  br label %_ZNSt10unique_ptrIN4cvc58internal6parser11SymbolTable14ImplementationESt14default_deleteIS4_EED2Ev.exit

_ZNSt10unique_ptrIN4cvc58internal6parser11SymbolTable14ImplementationESt14default_deleteIS4_EED2Ev.exit: ; preds = %entry, %_ZNKSt14default_deleteIN4cvc58internal6parser11SymbolTable14ImplementationEEclEPS4_.exit.i
  store ptr null, ptr %this, align 8
  ret void
}